target datalayout = "e-m:e-p270:32:32-p271:32:32-p272:64:64-i64:64-i128:128-f80:128-n8:16:32:64-S128"
target triple = "x86_64-pc-linux-gnu"

%struct.evp_aead_st = type { i8, i8, i8, i8, ptr, ptr, ptr, ptr, ptr, ptr, ptr }
%struct.evp_aead_ctx_st = type { ptr, ptr }

@.str = private unnamed_addr constant [124 x i8] c"generated/home/dtcxzyw/WorkSpace/Projects/compilers/llvm-opt-benchmark/bench/libquic/libquic/boringssl/crypto/cipher/aead.c\00", align 1

; Function Attrs: nounwind uwtable
define internal i32 @check_alias(ptr noundef %0, i64 noundef %1, ptr noundef %2) #0 {
  %4 = alloca i32, align 4
  %5 = alloca ptr, align 8
  %6 = alloca i64, align 8
  %7 = alloca ptr, align 8
  store ptr %0, ptr %5, align 8, !tbaa !18
  store i64 %1, ptr %6, align 8, !tbaa !20
  store ptr %2, ptr %7, align 8, !tbaa !18
  %8 = load ptr, ptr %7, align 8, !tbaa !18
  %9 = load ptr, ptr %5, align 8, !tbaa !18
  %10 = icmp ule ptr %8, %9
  br i1 %10, label %11, label %12

11:                                               ; preds = %3
  store i32 1, ptr %4, align 4
  br label %21

12:                                               ; preds = %3
  %13 = load ptr, ptr %5, align 8, !tbaa !18
  %14 = load i64, ptr %6, align 8, !tbaa !20
  %15 = getelementptr inbounds nuw i8, ptr %13, i64 %14
  %16 = load ptr, ptr %7, align 8, !tbaa !18
  %17 = icmp ule ptr %15, %16
  br i1 %17, label %18, label %19

18:                                               ; preds = %12
  store i32 1, ptr %4, align 4
  br label %21

19:                                               ; preds = %12
  br label %20

20:                                               ; preds = %19
  store i32 0, ptr %4, align 4
  br label %21

21:                                               ; preds = %20, %18, %11
  %22 = load i32, ptr %4, align 4
  ret i32 %22
}

; Function Attrs: nounwind uwtable
define hidden i32 @EVP_AEAD_CTX_open(ptr noundef %0, ptr noundef %1, ptr noundef %2, i64 noundef %3, ptr noundef %4, i64 noundef %5, ptr noundef %6, i64 noundef %7, ptr noundef %8, i64 noundef %9) #0 {
  %11 = alloca i32, align 4
  %12 = alloca ptr, align 8
  %13 = alloca ptr, align 8
  %14 = alloca ptr, align 8
  %15 = alloca i64, align 8
  %16 = alloca ptr, align 8
  %17 = alloca i64, align 8
  %18 = alloca ptr, align 8
  %19 = alloca i64, align 8
  %20 = alloca ptr, align 8
  %21 = alloca i64, align 8
  store ptr %0, ptr %12, align 8, !tbaa !16
  store ptr %1, ptr %13, align 8, !tbaa !18
  store ptr %2, ptr %14, align 8, !tbaa !31
  store i64 %3, ptr %15, align 8, !tbaa !20
  store ptr %4, ptr %16, align 8, !tbaa !18
  store i64 %5, ptr %17, align 8, !tbaa !20
  store ptr %6, ptr %18, align 8, !tbaa !18
  store i64 %7, ptr %19, align 8, !tbaa !20
  store ptr %8, ptr %20, align 8, !tbaa !18
  store i64 %9, ptr %21, align 8, !tbaa !20
  %22 = load ptr, ptr %18, align 8, !tbaa !18
  %23 = load i64, ptr %19, align 8, !tbaa !20
  %24 = load ptr, ptr %13, align 8, !tbaa !18
  %25 = call i32 @check_alias(ptr noundef %22, i64 noundef %23, ptr noundef %24)
  %26 = icmp ne i32 %25, 0
  br i1 %26, label %28, label %27

27:                                               ; preds = %10
  call void @ERR_put_error(i32 noundef 30, i32 noundef 0, i32 noundef 115, ptr noundef @.str, i32 noundef 134)
  br label %48

28:                                               ; preds = %10
  %29 = load ptr, ptr %12, align 8, !tbaa !16
  %30 = getelementptr inbounds nuw %struct.evp_aead_ctx_st, ptr %29, i32 0, i32 0
  %31 = load ptr, ptr %30, align 8, !tbaa !25
  %32 = getelementptr inbounds nuw %struct.evp_aead_st, ptr %31, i32 0, i32 8
  %33 = load ptr, ptr %32, align 8, !tbaa !34
  %34 = load ptr, ptr %12, align 8, !tbaa !16
  %35 = load ptr, ptr %13, align 8, !tbaa !18
  %36 = load ptr, ptr %14, align 8, !tbaa !31
  %37 = load i64, ptr %15, align 8, !tbaa !20
  %38 = load ptr, ptr %16, align 8, !tbaa !18
  %39 = load i64, ptr %17, align 8, !tbaa !20
  %40 = load ptr, ptr %18, align 8, !tbaa !18
  %41 = load i64, ptr %19, align 8, !tbaa !20
  %42 = load ptr, ptr %20, align 8, !tbaa !18
  %43 = load i64, ptr %21, align 8, !tbaa !20
  %44 = call i32 %33(ptr noundef %34, ptr noundef %35, ptr noundef %36, i64 noundef %37, ptr noundef %38, i64 noundef %39, ptr noundef %40, i64 noundef %41, ptr noundef %42, i64 noundef %43)
  %45 = icmp ne i32 %44, 0
  br i1 %45, label %46, label %47

46:                                               ; preds = %28
  store i32 1, ptr %11, align 4
  br label %52

47:                                               ; preds = %28
  br label %48

48:                                               ; preds = %47, %27
  %49 = load ptr, ptr %13, align 8, !tbaa !18
  %50 = load i64, ptr %15, align 8, !tbaa !20
  call void @llvm.memset.p0.i64(ptr align 1 %49, i8 0, i64 %50, i1 false)
  %51 = load ptr, ptr %14, align 8, !tbaa !31
  store i64 0, ptr %51, align 8, !tbaa !20
  store i32 0, ptr %11, align 4
  br label %52

52:                                               ; preds = %48, %46
  %53 = load i32, ptr %11, align 4
  ret i32 %53
}