; Function Attrs: nounwind uwtable
define hidden range(i32 0, 2) i32 @EVP_AEAD_CTX_open(ptr noundef %0, ptr noundef %1, ptr noundef %2, i64 noundef %3, ptr noundef %4, i64 noundef %5, ptr noundef %6, i64 noundef %7, ptr noundef %8, i64 noundef %9) local_unnamed_addr #3 {
  %.not.i = icmp ugt ptr %1, %6
  %11 = getelementptr inbounds nuw i8, ptr %6, i64 %7
  %.not7.i = icmp ugt ptr %11, %1
  %narrow.i.not = select i1 %.not.i, i1 %.not7.i, i1 false
  br i1 %narrow.i.not, label %12, label %13

12:                                               ; preds = %10
  tail call void @ERR_put_error(i32 noundef 30, i32 noundef 0, i32 noundef 115, ptr noundef nonnull @.str, i32 noundef 134) #5
  br label %18

13:                                               ; preds = %10
  %14 = load ptr, ptr %0, align 8, !tbaa !15
  %15 = getelementptr inbounds nuw i8, ptr %14, i64 40
  %16 = load ptr, ptr %15, align 8, !tbaa !23
  %17 = tail call i32 %16(ptr noundef nonnull %0, ptr noundef %1, ptr noundef %2, i64 noundef %3, ptr noundef %4, i64 noundef %5, ptr noundef %6, i64 noundef %7, ptr noundef %8, i64 noundef %9) #5
  %.not17 = icmp eq i32 %17, 0
  br i1 %.not17, label %18, label %19

18:                                               ; preds = %13, %12
  tail call void @llvm.memset.p0.i64(ptr align 1 %1, i8 0, i64 %3, i1 false)
  store i64 0, ptr %2, align 8, !tbaa !21
  br label %19

19:                                               ; preds = %13, %18
  %.0 = phi i32 [ 0, %18 ], [ 1, %13 ]
  ret i32 %.0
}